; Function Attrs: mustprogress uwtable
define void @_ZN5boost4urls10params_ref3setENS0_11params_base8iteratorENS_4core17basic_string_viewIcEE(ptr dead_on_unwind noalias nocapture writable writeonly sret(%"class.boost::urls::params_base::iterator") align 8 %0, ptr nocapture noundef nonnull readonly align 8 dereferenceable(64) %1, ptr noundef byval(%"class.boost::urls::params_base::iterator") align 8 %2, ptr %3, i64 %4) local_unnamed_addr #3 align 2 personality ptr @__gxx_personality_v0 {
  %6 = alloca %"struct.boost::urls::detail::params_iter_impl", align 8
  %7 = alloca %"struct.boost::urls::detail::params_iter_impl", align 8
  %8 = alloca %"struct.boost::urls::detail::param_value_iter", align 8
  call void @llvm.lifetime.start.p0(i64 104, ptr nonnull %6) #13
  %9 = getelementptr inbounds nuw i8, ptr %1, i64 56
  %10 = load ptr, ptr %9, align 8, !tbaa !11
  call void @llvm.lifetime.start.p0(i64 104, ptr nonnull %7) #13
  call void @llvm.memcpy.p0.p0.i64(ptr noundef nonnull align 8 dereferenceable(104) %7, ptr noundef nonnull align 8 dereferenceable(104) %2, i64 104, i1 false)
  call void @_ZN5boost4urls6detail16params_iter_impl9incrementEv(ptr noundef nonnull align 8 dereferenceable(104) %7) #13
  call void @llvm.lifetime.start.p0(i64 64, ptr nonnull %8) #13
  %11 = getelementptr inbounds nuw i8, ptr %2, i64 72
  %12 = load i64, ptr %11, align 8, !tbaa !82
  %13 = add i64 %12, -1
  %14 = getelementptr inbounds nuw i8, ptr %8, i64 8
  store ptr %3, ptr %14, align 8, !tbaa !87
  %.sroa.22.0..sroa_idx.i.i = getelementptr inbounds i8, ptr %8, i64 16
  store i64 %4, ptr %.sroa.22.0..sroa_idx.i.i, align 8, !tbaa !88
  %15 = getelementptr inbounds nuw i8, ptr %8, i64 24
  call void @llvm.memset.p0.i64(ptr noundef nonnull align 8 dereferenceable(17) %15, i8 0, i64 17, i1 false)
  store ptr getelementptr inbounds inrange(-16, 40) (i8, ptr @_ZTVN5boost4urls6detail16param_value_iterE, i64 16), ptr %8, align 8, !tbaa !21
  %16 = getelementptr inbounds nuw i8, ptr %8, i64 48
  store i64 %13, ptr %16, align 8, !tbaa !83
  %17 = getelementptr inbounds nuw i8, ptr %8, i64 56
  store i8 1, ptr %17, align 8, !tbaa !85
  %18 = getelementptr inbounds nuw i8, ptr %8, i64 57
  store i8 0, ptr %18, align 1, !tbaa !86
  invoke void @_ZN5boost4urls8url_base11edit_paramsERKNS0_6detail16params_iter_implES5_ONS2_15any_params_iterE(ptr dead_on_unwind nonnull writable sret(%"struct.boost::urls::detail::params_iter_impl") align 8 %6, ptr noundef nonnull align 8 dereferenceable(216) %10, ptr noundef nonnull align 8 dereferenceable(104) %2, ptr noundef nonnull align 8 dereferenceable(104) %7, ptr noundef nonnull align 8 dereferenceable(41) %8)
          to label %19 unwind label %24

19:                                               ; preds = %5
  %20 = getelementptr inbounds nuw i8, ptr %1, i64 48
  %.sroa.0.0.copyload = load i24, ptr %20, align 8
  call void @llvm.memcpy.p0.p0.i64(ptr noundef nonnull align 8 dereferenceable(105) %0, ptr noundef nonnull align 8 dereferenceable(104) %6, i64 104, i1 false)
  %21 = getelementptr inbounds nuw i8, ptr %0, i64 104
  %22 = trunc i24 %.sroa.0.0.copyload to i8
  %23 = and i8 %22, 1
  store i8 %23, ptr %21, align 8, !tbaa !30
  call void @_ZN5boost4urls6detail15any_params_iterD2Ev(ptr noundef nonnull align 8 dereferenceable(58) %8) #13
  call void @llvm.lifetime.end.p0(i64 64, ptr nonnull %8) #13
  call void @llvm.lifetime.end.p0(i64 104, ptr nonnull %7) #13
  call void @llvm.lifetime.end.p0(i64 104, ptr nonnull %6) #13
  ret void

24:                                               ; preds = %5
  %25 = landingpad { ptr, i32 }
          cleanup
  call void @_ZN5boost4urls6detail15any_params_iterD2Ev(ptr noundef nonnull align 8 dereferenceable(58) %8) #13
  call void @llvm.lifetime.end.p0(i64 64, ptr nonnull %8) #13
  call void @llvm.lifetime.end.p0(i64 104, ptr nonnull %7) #13
  call void @llvm.lifetime.end.p0(i64 104, ptr nonnull %6) #13
  resume { ptr, i32 } %25
}